target datalayout = "e-m:e-p270:32:32-p271:32:32-p272:64:64-i64:64-i128:128-f80:128-n8:16:32:64-S128"
target triple = "x86_64-pc-linux-gnu"

%"class.icu_77::UObject" = type { ptr }
%"class.icu_77::Calendar" = type <{ %"class.icu_77::UObject", [24 x i32], [24 x i8], i8, [7 x i8], double, ptr, i8, i16, i8, i32, i32, i32, i8, i8, i16, [4 x i8], ptr, ptr }>
%"class.icu_77::TimeZoneTransition" = type { %"class.icu_77::UObject", double, ptr, ptr }

@_ZTIN6icu_778TimeZoneE = external constant ptr
@_ZTIN6icu_7713OlsonTimeZoneE = external constant ptr
@_ZTIN6icu_7714SimpleTimeZoneE = external constant ptr
@_ZTIN6icu_7717RuleBasedTimeZoneE = external constant ptr
@_ZTIN6icu_779VTimeZoneE = external constant ptr

; Function Attrs: mustprogress nounwind uwtable
define noundef ptr @_ZNK6icu_778Calendar16getBasicTimeZoneEv(ptr noundef nonnull align 8 dereferenceable(192) %0) #0 align 2 {
  %2 = alloca ptr, align 8
  %3 = alloca ptr, align 8
  store ptr %0, ptr %3, align 8, !tbaa !37
  %4 = load ptr, ptr %3, align 8
  %5 = getelementptr inbounds nuw %"class.icu_77::Calendar", ptr %4, i32 0, i32 6
  %6 = load ptr, ptr %5, align 8, !tbaa !64
  %7 = icmp eq ptr %6, null
  br i1 %7, label %10, label %8

8:                                                ; preds = %1
  %9 = call ptr @__dynamic_cast(ptr %6, ptr @_ZTIN6icu_778TimeZoneE, ptr @_ZTIN6icu_7713OlsonTimeZoneE, i64 0) #16
  br label %11

10:                                               ; preds = %1
  br label %11

11:                                               ; preds = %10, %8
  %12 = phi ptr [ %9, %8 ], [ null, %10 ]
  %13 = icmp ne ptr %12, null
  br i1 %13, label %44, label %14

14:                                               ; preds = %11
  %15 = getelementptr inbounds nuw %"class.icu_77::Calendar", ptr %4, i32 0, i32 6
  %16 = load ptr, ptr %15, align 8, !tbaa !64
  %17 = icmp eq ptr %16, null
  br i1 %17, label %20, label %18

18:                                               ; preds = %14
  %19 = call ptr @__dynamic_cast(ptr %16, ptr @_ZTIN6icu_778TimeZoneE, ptr @_ZTIN6icu_7714SimpleTimeZoneE, i64 0) #16
  br label %21

20:                                               ; preds = %14
  br label %21

21:                                               ; preds = %20, %18
  %22 = phi ptr [ %19, %18 ], [ null, %20 ]
  %23 = icmp ne ptr %22, null
  br i1 %23, label %44, label %24

24:                                               ; preds = %21
  %25 = getelementptr inbounds nuw %"class.icu_77::Calendar", ptr %4, i32 0, i32 6
  %26 = load ptr, ptr %25, align 8, !tbaa !64
  %27 = icmp eq ptr %26, null
  br i1 %27, label %30, label %28

28:                                               ; preds = %24
  %29 = call ptr @__dynamic_cast(ptr %26, ptr @_ZTIN6icu_778TimeZoneE, ptr @_ZTIN6icu_7717RuleBasedTimeZoneE, i64 0) #16
  br label %31

30:                                               ; preds = %24
  br label %31

31:                                               ; preds = %30, %28
  %32 = phi ptr [ %29, %28 ], [ null, %30 ]
  %33 = icmp ne ptr %32, null
  br i1 %33, label %44, label %34

34:                                               ; preds = %31
  %35 = getelementptr inbounds nuw %"class.icu_77::Calendar", ptr %4, i32 0, i32 6
  %36 = load ptr, ptr %35, align 8, !tbaa !64
  %37 = icmp eq ptr %36, null
  br i1 %37, label %40, label %38

38:                                               ; preds = %34
  %39 = call ptr @__dynamic_cast(ptr %36, ptr @_ZTIN6icu_778TimeZoneE, ptr @_ZTIN6icu_779VTimeZoneE, i64 0) #16
  br label %41

40:                                               ; preds = %34
  br label %41

41:                                               ; preds = %40, %38
  %42 = phi ptr [ %39, %38 ], [ null, %40 ]
  %43 = icmp ne ptr %42, null
  br i1 %43, label %44, label %47

44:                                               ; preds = %41, %31, %21, %11
  %45 = getelementptr inbounds nuw %"class.icu_77::Calendar", ptr %4, i32 0, i32 6
  %46 = load ptr, ptr %45, align 8, !tbaa !64
  store ptr %46, ptr %2, align 8
  br label %48

47:                                               ; preds = %41
  store ptr null, ptr %2, align 8
  br label %48

48:                                               ; preds = %47, %44
  %49 = load ptr, ptr %2, align 8
  ret ptr %49
}

; Function Attrs: inlinehint mustprogress nounwind uwtable
define internal noundef signext i8 @_ZL9U_FAILURE10UErrorCode(i32 noundef %0) #2 {
  %2 = alloca i32, align 4
  store i32 %0, ptr %2, align 4, !tbaa !15
  %3 = load i32, ptr %2, align 4, !tbaa !15
  %4 = icmp sgt i32 %3, 0
  %5 = zext i1 %4 to i8
  ret i8 %5
}

; Function Attrs: mustprogress uwtable
define noundef signext i8 @_ZNK6icu_778Calendar34getImmediatePreviousZoneTransitionEdPdR10UErrorCode(ptr noundef nonnull align 8 dereferenceable(192) %0, double noundef %1, ptr noundef %2, ptr noundef nonnull align 4 dereferenceable(4) %3) #1 align 2 personality ptr @__gxx_personality_v0 {
  %5 = alloca i8, align 1
  %6 = alloca ptr, align 8
  %7 = alloca double, align 8
  %8 = alloca ptr, align 8
  %9 = alloca ptr, align 8
  %10 = alloca ptr, align 8
  %11 = alloca %"class.icu_77::TimeZoneTransition", align 8
  %12 = alloca i8, align 1
  %13 = alloca ptr, align 8
  %14 = alloca i32, align 4
  %15 = alloca i32, align 4
  store ptr %0, ptr %6, align 8, !tbaa !37
  store double %1, ptr %7, align 8, !tbaa !97
  store ptr %2, ptr %8, align 8, !tbaa !119
  store ptr %3, ptr %9, align 8, !tbaa !22
  %16 = load ptr, ptr %6, align 8
  %17 = load ptr, ptr %9, align 8, !tbaa !22
  %18 = load i32, ptr %17, align 4, !tbaa !15
  %19 = call noundef signext i8 @_ZL9U_FAILURE10UErrorCode(i32 noundef %18)
  %20 = icmp ne i8 %19, 0
  br i1 %20, label %21, label %22

21:                                               ; preds = %4
  store i8 0, ptr %5, align 1
  br label %54

22:                                               ; preds = %4
  call void @llvm.lifetime.start.p0(i64 8, ptr %10) #16
  %23 = call noundef ptr @_ZNK6icu_778Calendar16getBasicTimeZoneEv(ptr noundef nonnull align 8 dereferenceable(192) %16)
  store ptr %23, ptr %10, align 8, !tbaa !121
  %24 = load ptr, ptr %10, align 8, !tbaa !121
  %25 = icmp ne ptr %24, null
  br i1 %25, label %26, label %50

26:                                               ; preds = %22
  call void @llvm.lifetime.start.p0(i64 32, ptr %11) #16
  call void @_ZN6icu_7718TimeZoneTransitionC1Ev(ptr noundef nonnull align 8 dereferenceable(32) %11)
  call void @llvm.lifetime.start.p0(i64 1, ptr %12) #16
  %27 = load ptr, ptr %10, align 8, !tbaa !121
  %28 = load double, ptr %7, align 8, !tbaa !97
  %29 = load ptr, ptr %27, align 8, !tbaa !25
  %30 = getelementptr inbounds ptr, ptr %29, i64 15
  %31 = load ptr, ptr %30, align 8
  %32 = invoke noundef signext i8 %31(ptr noundef nonnull align 8 dereferenceable(72) %27, double noundef %28, i8 noundef signext 1, ptr noundef nonnull align 8 dereferenceable(32) %11)
          to label %33 unwind label %40

33:                                               ; preds = %26
  store i8 %32, ptr %12, align 1, !tbaa !70
  %34 = load i8, ptr %12, align 1, !tbaa !70
  %35 = icmp ne i8 %34, 0
  br i1 %35, label %36, label %44

36:                                               ; preds = %33
  %37 = invoke noundef double @_ZNK6icu_7718TimeZoneTransition7getTimeEv(ptr noundef nonnull align 8 dereferenceable(32) %11)
          to label %38 unwind label %40

38:                                               ; preds = %36
  %39 = load ptr, ptr %8, align 8, !tbaa !119
  store double %37, ptr %39, align 8, !tbaa !97
  store i8 1, ptr %5, align 1
  store i32 1, ptr %15, align 4
  br label %47

40:                                               ; preds = %36, %26
  %41 = landingpad { ptr, i32 }
          cleanup
  %42 = extractvalue { ptr, i32 } %41, 0
  store ptr %42, ptr %13, align 8
  %43 = extractvalue { ptr, i32 } %41, 1
  store i32 %43, ptr %14, align 4
  call void @llvm.lifetime.end.p0(i64 1, ptr %12) #16
  call void @_ZN6icu_7718TimeZoneTransitionD1Ev(ptr noundef nonnull align 8 dereferenceable(32) %11) #16
  call void @llvm.lifetime.end.p0(i64 32, ptr %11) #16
  call void @llvm.lifetime.end.p0(i64 8, ptr %10) #16
  br label %56

44:                                               ; preds = %33
  %45 = load ptr, ptr %9, align 8, !tbaa !22
  store i32 5, ptr %45, align 4, !tbaa !15
  br label %46

46:                                               ; preds = %44
  store i32 0, ptr %15, align 4
  br label %47

47:                                               ; preds = %46, %38
  call void @llvm.lifetime.end.p0(i64 1, ptr %12) #16
  call void @_ZN6icu_7718TimeZoneTransitionD1Ev(ptr noundef nonnull align 8 dereferenceable(32) %11) #16
  call void @llvm.lifetime.end.p0(i64 32, ptr %11) #16
  %48 = load i32, ptr %15, align 4
  switch i32 %48, label %53 [
    i32 0, label %49
  ]

49:                                               ; preds = %47
  br label %52

50:                                               ; preds = %22
  %51 = load ptr, ptr %9, align 8, !tbaa !22
  store i32 16, ptr %51, align 4, !tbaa !15
  br label %52

52:                                               ; preds = %50, %49
  store i8 0, ptr %5, align 1
  store i32 1, ptr %15, align 4
  br label %53

53:                                               ; preds = %52, %47
  call void @llvm.lifetime.end.p0(i64 8, ptr %10) #16
  br label %54

54:                                               ; preds = %53, %21
  %55 = load i8, ptr %5, align 1
  ret i8 %55

56:                                               ; preds = %40
  %57 = load ptr, ptr %13, align 8
  %58 = load i32, ptr %14, align 4
  %59 = insertvalue { ptr, i32 } poison, ptr %57, 0
  %60 = insertvalue { ptr, i32 } %59, i32 %58, 1
  resume { ptr, i32 } %60
}