; Function Attrs: mustprogress uwtable
define noundef signext range(i8 0, 2) i8 @_ZNK6icu_778Calendar34getImmediatePreviousZoneTransitionEdPdR10UErrorCode(ptr noundef nonnull readonly align 8 captures(none) dereferenceable(192) %0, double noundef %1, ptr noundef writeonly captures(none) %2, ptr noundef nonnull align 4 captures(none) dereferenceable(4) %3) local_unnamed_addr #1 align 2 personality ptr @__gxx_personality_v0 {
  %5 = alloca %"class.icu_77::TimeZoneTransition", align 8
  %6 = load i32, ptr %3, align 4, !tbaa !13
  %7 = icmp slt i32 %6, 1
  br i1 %7, label %8, label %32

8:                                                ; preds = %4
  %9 = getelementptr inbounds nuw i8, ptr %0, i64 144
  %10 = load ptr, ptr %9, align 8, !tbaa !41
  %11 = icmp eq ptr %10, null
  br i1 %11, label %31, label %12

12:                                               ; preds = %8
  %13 = tail call ptr @__dynamic_cast(ptr nonnull %10, ptr nonnull @_ZTIN6icu_778TimeZoneE, ptr nonnull @_ZTIN6icu_7713OlsonTimeZoneE, i64 0) #25
  %14 = icmp eq ptr %13, null
  br i1 %14, label %.critedge.i, label %_ZNK6icu_778Calendar16getBasicTimeZoneEv.exit

.critedge.i:                                      ; preds = %12
  %15 = tail call ptr @__dynamic_cast(ptr nonnull %10, ptr nonnull @_ZTIN6icu_778TimeZoneE, ptr nonnull @_ZTIN6icu_7714SimpleTimeZoneE, i64 0) #25
  %16 = icmp eq ptr %15, null
  br i1 %16, label %.critedge10.i, label %_ZNK6icu_778Calendar16getBasicTimeZoneEv.exit

.critedge10.i:                                    ; preds = %.critedge.i
  %17 = tail call ptr @__dynamic_cast(ptr nonnull %10, ptr nonnull @_ZTIN6icu_778TimeZoneE, ptr nonnull @_ZTIN6icu_7717RuleBasedTimeZoneE, i64 0) #25
  %18 = icmp eq ptr %17, null
  br i1 %18, label %.critedge12.i, label %_ZNK6icu_778Calendar16getBasicTimeZoneEv.exit

.critedge12.i:                                    ; preds = %.critedge10.i
  %19 = tail call ptr @__dynamic_cast(ptr nonnull %10, ptr nonnull @_ZTIN6icu_778TimeZoneE, ptr nonnull @_ZTIN6icu_779VTimeZoneE, i64 0) #25
  %20 = icmp eq ptr %19, null
  br i1 %20, label %31, label %_ZNK6icu_778Calendar16getBasicTimeZoneEv.exit

_ZNK6icu_778Calendar16getBasicTimeZoneEv.exit:    ; preds = %.critedge12.i, %.critedge10.i, %.critedge.i, %12
  call void @llvm.lifetime.start.p0(i64 32, ptr nonnull %5) #25
  call void @_ZN6icu_7718TimeZoneTransitionC1Ev(ptr noundef nonnull align 8 dereferenceable(32) %5)
  %21 = load ptr, ptr %10, align 8, !tbaa !15
  %22 = getelementptr inbounds nuw i8, ptr %21, i64 120
  %23 = load ptr, ptr %22, align 8
  %24 = invoke noundef signext i8 %23(ptr noundef nonnull align 8 dereferenceable(72) %10, double noundef %1, i8 noundef signext 1, ptr noundef nonnull align 8 dereferenceable(32) %5)
          to label %25 unwind label %28

25:                                               ; preds = %_ZNK6icu_778Calendar16getBasicTimeZoneEv.exit
  %.not15 = icmp eq i8 %24, 0
  br i1 %.not15, label %.thread, label %26

26:                                               ; preds = %25
  %27 = invoke noundef double @_ZNK6icu_7718TimeZoneTransition7getTimeEv(ptr noundef nonnull align 8 dereferenceable(32) %5)
          to label %30 unwind label %28

28:                                               ; preds = %26, %_ZNK6icu_778Calendar16getBasicTimeZoneEv.exit
  %29 = landingpad { ptr, i32 }
          cleanup
  call void @_ZN6icu_7718TimeZoneTransitionD1Ev(ptr noundef nonnull align 8 dereferenceable(32) %5) #25
  call void @llvm.lifetime.end.p0(i64 32, ptr nonnull %5) #25
  resume { ptr, i32 } %29

.thread:                                          ; preds = %25
  store i32 5, ptr %3, align 4, !tbaa !13
  call void @_ZN6icu_7718TimeZoneTransitionD1Ev(ptr noundef nonnull align 8 dereferenceable(32) %5) #25
  call void @llvm.lifetime.end.p0(i64 32, ptr nonnull %5) #25
  br label %32

30:                                               ; preds = %26
  store double %27, ptr %2, align 8, !tbaa !76
  call void @_ZN6icu_7718TimeZoneTransitionD1Ev(ptr noundef nonnull align 8 dereferenceable(32) %5) #25
  call void @llvm.lifetime.end.p0(i64 32, ptr nonnull %5) #25
  br label %32

31:                                               ; preds = %.critedge12.i, %8
  store i32 16, ptr %3, align 4, !tbaa !13
  br label %32

32:                                               ; preds = %31, %.thread, %30, %4
  %.012 = phi i8 [ 0, %4 ], [ 1, %30 ], [ 0, %.thread ], [ 0, %31 ]
  ret i8 %.012
}